target datalayout = "e-m:e-p270:32:32-p271:32:32-p272:64:64-i64:64-i128:128-f80:128-n8:16:32:64-S128"
target triple = "x86_64-pc-linux-gnu"

%struct.formnode = type { i16, i16, i16, i32, i32, i32, i32, i16, i16, i16, i32, ptr, ptr, ptr, ptr, ptr, ptr, ptr, ptr, ptr, ptr, ptr }
%struct.fieldnode = type { i16, i16, i16, i16, i16, i32, i32, i32, i32, i16, i16, i16, i16, i32, i32, i32, i32, ptr, ptr, ptr, ptr, ptr, ptr, ptr, ptr }
%struct._PAGE = type { i16, i16, i16, i16 }

; Function Attrs: nounwind uwtable
define internal ptr @Next_Field_On_Page(ptr noundef %0) #0 {
  %2 = alloca ptr, align 8
  %3 = alloca ptr, align 8
  %4 = alloca ptr, align 8
  %5 = alloca ptr, align 8
  %6 = alloca ptr, align 8
  store ptr %0, ptr %2, align 8, !tbaa !17
  call void @llvm.lifetime.start.p0(i64 8, ptr %3) #9
  %7 = load ptr, ptr %2, align 8, !tbaa !17
  %8 = getelementptr inbounds nuw %struct.fieldnode, ptr %7, i32 0, i32 20
  %9 = load ptr, ptr %8, align 8, !tbaa !46
  store ptr %9, ptr %3, align 8, !tbaa !4
  call void @llvm.lifetime.start.p0(i64 8, ptr %4) #9
  %10 = load ptr, ptr %3, align 8, !tbaa !4
  %11 = getelementptr inbounds nuw %struct.formnode, ptr %10, i32 0, i32 14
  %12 = load ptr, ptr %11, align 8, !tbaa !63
  %13 = load ptr, ptr %2, align 8, !tbaa !17
  %14 = getelementptr inbounds nuw %struct.fieldnode, ptr %13, i32 0, i32 12
  %15 = load i16, ptr %14, align 2, !tbaa !88
  %16 = sext i16 %15 to i64
  %17 = getelementptr inbounds ptr, ptr %12, i64 %16
  store ptr %17, ptr %4, align 8, !tbaa !87
  call void @llvm.lifetime.start.p0(i64 8, ptr %5) #9
  %18 = load ptr, ptr %3, align 8, !tbaa !4
  %19 = getelementptr inbounds nuw %struct.formnode, ptr %18, i32 0, i32 14
  %20 = load ptr, ptr %19, align 8, !tbaa !63
  %21 = load ptr, ptr %3, align 8, !tbaa !4
  %22 = getelementptr inbounds nuw %struct.formnode, ptr %21, i32 0, i32 16
  %23 = load ptr, ptr %22, align 8, !tbaa !84
  %24 = load ptr, ptr %3, align 8, !tbaa !4
  %25 = getelementptr inbounds nuw %struct.formnode, ptr %24, i32 0, i32 9
  %26 = load i16, ptr %25, align 4, !tbaa !49
  %27 = sext i16 %26 to i64
  %28 = getelementptr inbounds %struct._PAGE, ptr %23, i64 %27
  %29 = getelementptr inbounds nuw %struct._PAGE, ptr %28, i32 0, i32 0
  %30 = load i16, ptr %29, align 2, !tbaa !89
  %31 = sext i16 %30 to i64
  %32 = getelementptr inbounds ptr, ptr %20, i64 %31
  store ptr %32, ptr %5, align 8, !tbaa !87
  call void @llvm.lifetime.start.p0(i64 8, ptr %6) #9
  %33 = load ptr, ptr %3, align 8, !tbaa !4
  %34 = getelementptr inbounds nuw %struct.formnode, ptr %33, i32 0, i32 14
  %35 = load ptr, ptr %34, align 8, !tbaa !63
  %36 = load ptr, ptr %3, align 8, !tbaa !4
  %37 = getelementptr inbounds nuw %struct.formnode, ptr %36, i32 0, i32 16
  %38 = load ptr, ptr %37, align 8, !tbaa !84
  %39 = load ptr, ptr %3, align 8, !tbaa !4
  %40 = getelementptr inbounds nuw %struct.formnode, ptr %39, i32 0, i32 9
  %41 = load i16, ptr %40, align 4, !tbaa !49
  %42 = sext i16 %41 to i64
  %43 = getelementptr inbounds %struct._PAGE, ptr %38, i64 %42
  %44 = getelementptr inbounds nuw %struct._PAGE, ptr %43, i32 0, i32 1
  %45 = load i16, ptr %44, align 2, !tbaa !85
  %46 = sext i16 %45 to i64
  %47 = getelementptr inbounds ptr, ptr %35, i64 %46
  store ptr %47, ptr %6, align 8, !tbaa !87
  br label %48

48:                                               ; preds = %67, %1
  %49 = load ptr, ptr %4, align 8, !tbaa !87
  %50 = load ptr, ptr %6, align 8, !tbaa !87
  %51 = icmp eq ptr %49, %50
  br i1 %51, label %52, label %54

52:                                               ; preds = %48
  %53 = load ptr, ptr %5, align 8, !tbaa !87
  br label %57

54:                                               ; preds = %48
  %55 = load ptr, ptr %4, align 8, !tbaa !87
  %56 = getelementptr inbounds ptr, ptr %55, i64 1
  br label %57

57:                                               ; preds = %54, %52
  %58 = phi ptr [ %53, %52 ], [ %56, %54 ]
  store ptr %58, ptr %4, align 8, !tbaa !87
  %59 = load ptr, ptr %4, align 8, !tbaa !87
  %60 = load ptr, ptr %59, align 8, !tbaa !17
  %61 = getelementptr inbounds nuw %struct.fieldnode, ptr %60, i32 0, i32 16
  %62 = load i32, ptr %61, align 8, !tbaa !23
  %63 = and i32 %62, 3
  %64 = icmp eq i32 %63, 3
  br i1 %64, label %65, label %66

65:                                               ; preds = %57
  br label %72

66:                                               ; preds = %57
  br label %67

67:                                               ; preds = %66
  %68 = load ptr, ptr %2, align 8, !tbaa !17
  %69 = load ptr, ptr %4, align 8, !tbaa !87
  %70 = load ptr, ptr %69, align 8, !tbaa !17
  %71 = icmp ne ptr %68, %70
  br i1 %71, label %48, label %72, !llvm.loop !91

72:                                               ; preds = %67, %65
  %73 = load ptr, ptr %4, align 8, !tbaa !87
  %74 = load ptr, ptr %73, align 8, !tbaa !17
  call void @llvm.lifetime.end.p0(i64 8, ptr %6) #9
  call void @llvm.lifetime.end.p0(i64 8, ptr %5) #9
  call void @llvm.lifetime.end.p0(i64 8, ptr %4) #9
  call void @llvm.lifetime.end.p0(i64 8, ptr %3) #9
  ret ptr %74
}

; Function Attrs: nounwind uwtable
define dso_local ptr @_nc_First_Active_Field(ptr noundef %0) #0 {
  %2 = alloca ptr, align 8
  %3 = alloca ptr, align 8
  %4 = alloca ptr, align 8
  %5 = alloca ptr, align 8
  %6 = alloca ptr, align 8
  store ptr %0, ptr %2, align 8, !tbaa !4
  call void @llvm.lifetime.start.p0(i64 8, ptr %3) #9
  %7 = load ptr, ptr %2, align 8, !tbaa !4
  %8 = getelementptr inbounds nuw %struct.formnode, ptr %7, i32 0, i32 14
  %9 = load ptr, ptr %8, align 8, !tbaa !63
  %10 = load ptr, ptr %2, align 8, !tbaa !4
  %11 = getelementptr inbounds nuw %struct.formnode, ptr %10, i32 0, i32 16
  %12 = load ptr, ptr %11, align 8, !tbaa !84
  %13 = load ptr, ptr %2, align 8, !tbaa !4
  %14 = getelementptr inbounds nuw %struct.formnode, ptr %13, i32 0, i32 9
  %15 = load i16, ptr %14, align 4, !tbaa !49
  %16 = sext i16 %15 to i64
  %17 = getelementptr inbounds %struct._PAGE, ptr %12, i64 %16
  %18 = getelementptr inbounds nuw %struct._PAGE, ptr %17, i32 0, i32 1
  %19 = load i16, ptr %18, align 2, !tbaa !85
  %20 = sext i16 %19 to i64
  %21 = getelementptr inbounds ptr, ptr %9, i64 %20
  store ptr %21, ptr %3, align 8, !tbaa !87
  call void @llvm.lifetime.start.p0(i64 8, ptr %4) #9
  %22 = load ptr, ptr %3, align 8, !tbaa !87
  %23 = load ptr, ptr %22, align 8, !tbaa !17
  %24 = call ptr @Next_Field_On_Page(ptr noundef %23)
  store ptr %24, ptr %4, align 8, !tbaa !17
  %25 = load ptr, ptr %4, align 8, !tbaa !17
  %26 = load ptr, ptr %3, align 8, !tbaa !87
  %27 = load ptr, ptr %26, align 8, !tbaa !17
  %28 = icmp eq ptr %25, %27
  br i1 %28, label %29, label %101

29:                                               ; preds = %1
  %30 = load ptr, ptr %4, align 8, !tbaa !17
  %31 = getelementptr inbounds nuw %struct.fieldnode, ptr %30, i32 0, i32 16
  %32 = load i32, ptr %31, align 8, !tbaa !23
  %33 = and i32 %32, 3
  %34 = icmp ne i32 %33, 3
  br i1 %34, label %35, label %100

35:                                               ; preds = %29
  call void @llvm.lifetime.start.p0(i64 8, ptr %5) #9
  %36 = load ptr, ptr %2, align 8, !tbaa !4
  %37 = getelementptr inbounds nuw %struct.formnode, ptr %36, i32 0, i32 14
  %38 = load ptr, ptr %37, align 8, !tbaa !63
  %39 = load ptr, ptr %4, align 8, !tbaa !17
  %40 = getelementptr inbounds nuw %struct.fieldnode, ptr %39, i32 0, i32 12
  %41 = load i16, ptr %40, align 2, !tbaa !88
  %42 = sext i16 %41 to i64
  %43 = getelementptr inbounds ptr, ptr %38, i64 %42
  store ptr %43, ptr %5, align 8, !tbaa !87
  call void @llvm.lifetime.start.p0(i64 8, ptr %6) #9
  %44 = load ptr, ptr %2, align 8, !tbaa !4
  %45 = getelementptr inbounds nuw %struct.formnode, ptr %44, i32 0, i32 14
  %46 = load ptr, ptr %45, align 8, !tbaa !63
  %47 = load ptr, ptr %2, align 8, !tbaa !4
  %48 = getelementptr inbounds nuw %struct.formnode, ptr %47, i32 0, i32 16
  %49 = load ptr, ptr %48, align 8, !tbaa !84
  %50 = load ptr, ptr %2, align 8, !tbaa !4
  %51 = getelementptr inbounds nuw %struct.formnode, ptr %50, i32 0, i32 9
  %52 = load i16, ptr %51, align 4, !tbaa !49
  %53 = sext i16 %52 to i64
  %54 = getelementptr inbounds %struct._PAGE, ptr %49, i64 %53
  %55 = getelementptr inbounds nuw %struct._PAGE, ptr %54, i32 0, i32 0
  %56 = load i16, ptr %55, align 2, !tbaa !89
  %57 = sext i16 %56 to i64
  %58 = getelementptr inbounds ptr, ptr %46, i64 %57
  store ptr %58, ptr %6, align 8, !tbaa !87
  br label %59

59:                                               ; preds = %78, %35
  %60 = load ptr, ptr %5, align 8, !tbaa !87
  %61 = load ptr, ptr %3, align 8, !tbaa !87
  %62 = icmp eq ptr %60, %61
  br i1 %62, label %63, label %65

63:                                               ; preds = %59
  %64 = load ptr, ptr %6, align 8, !tbaa !87
  br label %68

65:                                               ; preds = %59
  %66 = load ptr, ptr %5, align 8, !tbaa !87
  %67 = getelementptr inbounds ptr, ptr %66, i64 1
  br label %68

68:                                               ; preds = %65, %63
  %69 = phi ptr [ %64, %63 ], [ %67, %65 ]
  store ptr %69, ptr %5, align 8, !tbaa !87
  %70 = load ptr, ptr %5, align 8, !tbaa !87
  %71 = load ptr, ptr %70, align 8, !tbaa !17
  %72 = getelementptr inbounds nuw %struct.fieldnode, ptr %71, i32 0, i32 16
  %73 = load i32, ptr %72, align 8, !tbaa !23
  %74 = and i32 %73, 1
  %75 = icmp ne i32 %74, 0
  br i1 %75, label %76, label %77

76:                                               ; preds = %68
  br label %83

77:                                               ; preds = %68
  br label %78

78:                                               ; preds = %77
  %79 = load ptr, ptr %4, align 8, !tbaa !17
  %80 = load ptr, ptr %5, align 8, !tbaa !87
  %81 = load ptr, ptr %80, align 8, !tbaa !17
  %82 = icmp ne ptr %79, %81
  br i1 %82, label %59, label %83, !llvm.loop !90

83:                                               ; preds = %78, %76
  %84 = load ptr, ptr %5, align 8, !tbaa !87
  %85 = load ptr, ptr %84, align 8, !tbaa !17
  store ptr %85, ptr %4, align 8, !tbaa !17
  %86 = load ptr, ptr %4, align 8, !tbaa !17
  %87 = load ptr, ptr %3, align 8, !tbaa !87
  %88 = load ptr, ptr %87, align 8, !tbaa !17
  %89 = icmp eq ptr %86, %88
  br i1 %89, label %90, label %99

90:                                               ; preds = %83
  %91 = load ptr, ptr %4, align 8, !tbaa !17
  %92 = getelementptr inbounds nuw %struct.fieldnode, ptr %91, i32 0, i32 16
  %93 = load i32, ptr %92, align 8, !tbaa !23
  %94 = and i32 %93, 1
  %95 = icmp ne i32 %94, 0
  br i1 %95, label %99, label %96

96:                                               ; preds = %90
  %97 = load ptr, ptr %6, align 8, !tbaa !87
  %98 = load ptr, ptr %97, align 8, !tbaa !17
  store ptr %98, ptr %4, align 8, !tbaa !17
  br label %99

99:                                               ; preds = %96, %90, %83
  call void @llvm.lifetime.end.p0(i64 8, ptr %6) #9
  call void @llvm.lifetime.end.p0(i64 8, ptr %5) #9
  br label %100

100:                                              ; preds = %99, %29
  br label %101

101:                                              ; preds = %100, %1
  %102 = load ptr, ptr %4, align 8, !tbaa !17
  call void @llvm.lifetime.end.p0(i64 8, ptr %4) #9
  call void @llvm.lifetime.end.p0(i64 8, ptr %3) #9
  ret ptr %102
}