; Function Attrs: nofree norecurse nosync nounwind memory(read, inaccessiblemem: none) uwtable
define dso_local ptr @_nc_First_Active_Field(ptr noundef readonly captures(none) %0) local_unnamed_addr #3 {
  %2 = getelementptr inbounds nuw i8, ptr %0, i64 64
  %3 = load ptr, ptr %2, align 8, !tbaa !62
  %4 = getelementptr inbounds nuw i8, ptr %0, i64 80
  %5 = load ptr, ptr %4, align 8, !tbaa !78
  %6 = getelementptr inbounds nuw i8, ptr %0, i64 28
  %7 = load i16, ptr %6, align 4, !tbaa !47
  %8 = sext i16 %7 to i64
  %9 = getelementptr inbounds %struct._PAGE, ptr %5, i64 %8, i32 1
  %10 = load i16, ptr %9, align 2, !tbaa !79
  %11 = sext i16 %10 to i64
  %12 = getelementptr inbounds ptr, ptr %3, i64 %11
  %13 = load ptr, ptr %12, align 8, !tbaa !81
  %14 = getelementptr inbounds nuw i8, ptr %13, i64 80
  %15 = load ptr, ptr %14, align 8, !tbaa !44
  %16 = getelementptr inbounds nuw i8, ptr %15, i64 64
  %17 = load ptr, ptr %16, align 8, !tbaa !62
  %18 = getelementptr inbounds nuw i8, ptr %13, i64 34
  %19 = load i16, ptr %18, align 2, !tbaa !82
  %20 = sext i16 %19 to i64
  %21 = getelementptr inbounds ptr, ptr %17, i64 %20
  %22 = getelementptr inbounds nuw i8, ptr %15, i64 80
  %23 = load ptr, ptr %22, align 8, !tbaa !78
  %24 = getelementptr inbounds nuw i8, ptr %15, i64 28
  %25 = load i16, ptr %24, align 4, !tbaa !47
  %26 = sext i16 %25 to i64
  %27 = getelementptr inbounds %struct._PAGE, ptr %23, i64 %26
  %28 = load i16, ptr %27, align 2, !tbaa !83
  %29 = sext i16 %28 to i64
  %30 = getelementptr inbounds ptr, ptr %17, i64 %29
  %31 = getelementptr inbounds nuw i8, ptr %27, i64 2
  %32 = load i16, ptr %31, align 2, !tbaa !79
  %33 = sext i16 %32 to i64
  %34 = getelementptr inbounds ptr, ptr %17, i64 %33
  br label %35

35:                                               ; preds = %35, %1
  %.0.i = phi ptr [ %21, %1 ], [ %38, %35 ]
  %36 = icmp eq ptr %.0.i, %34
  %37 = getelementptr inbounds nuw i8, ptr %.0.i, i64 8
  %38 = select i1 %36, ptr %30, ptr %37
  %39 = load ptr, ptr %38, align 8, !tbaa !81
  %40 = getelementptr inbounds nuw i8, ptr %39, i64 48
  %41 = load i32, ptr %40, align 8, !tbaa !19
  %42 = and i32 %41, 3
  %43 = icmp eq i32 %42, 3
  %.not.i = icmp eq ptr %13, %39
  %or.cond.i = or i1 %.not.i, %43
  br i1 %or.cond.i, label %Next_Field_On_Page.exit, label %35, !llvm.loop !84

Next_Field_On_Page.exit:                          ; preds = %35
  %.not.i.not = xor i1 %.not.i, true
  %brmerge = or i1 %43, %.not.i.not
  br i1 %brmerge, label %65, label %44

44:                                               ; preds = %Next_Field_On_Page.exit
  %45 = getelementptr inbounds nuw i8, ptr %39, i64 34
  %46 = load i16, ptr %45, align 2, !tbaa !82
  %47 = sext i16 %46 to i64
  %48 = getelementptr inbounds ptr, ptr %3, i64 %47
  %49 = getelementptr inbounds %struct._PAGE, ptr %5, i64 %8
  %50 = load i16, ptr %49, align 2, !tbaa !83
  %51 = sext i16 %50 to i64
  %52 = getelementptr inbounds ptr, ptr %3, i64 %51
  br label %53

53:                                               ; preds = %53, %44
  %.025 = phi ptr [ %48, %44 ], [ %56, %53 ]
  %54 = icmp eq ptr %.025, %12
  %55 = getelementptr inbounds nuw i8, ptr %.025, i64 8
  %56 = select i1 %54, ptr %52, ptr %55
  %57 = load ptr, ptr %56, align 8, !tbaa !81
  %58 = getelementptr inbounds nuw i8, ptr %57, i64 48
  %59 = load i32, ptr %58, align 8, !tbaa !19
  %60 = and i32 %59, 1
  %.not30 = icmp ne i32 %60, 0
  %.not31 = icmp eq ptr %39, %57
  %or.cond = or i1 %.not31, %.not30
  br i1 %or.cond, label %61, label %53, !llvm.loop !85

61:                                               ; preds = %53
  %62 = icmp eq ptr %57, %13
  %.not32 = icmp eq i32 %60, 0
  %or.cond33 = and i1 %62, %.not32
  br i1 %or.cond33, label %63, label %65

63:                                               ; preds = %61
  %64 = load ptr, ptr %52, align 8, !tbaa !81
  br label %65

65:                                               ; preds = %Next_Field_On_Page.exit, %61, %63
  %.0 = phi ptr [ %39, %Next_Field_On_Page.exit ], [ %64, %63 ], [ %57, %61 ]
  ret ptr %.0
}